; Function Attrs: mustprogress nofree norecurse nosync nounwind willreturn memory(read, argmem: readwrite, inaccessiblemem: none) uwtable
define range(i32 -46, 1) i32 @pmix_mca_base_var_group_get(i32 noundef %0, ptr noundef writeonly captures(none) %1) local_unnamed_addr #4 {
  %3 = icmp slt i32 %0, 0
  br i1 %3, label %pmix_mca_base_var_group_get_internal.exit, label %4

4:                                                ; preds = %2
  %5 = load i32, ptr getelementptr inbounds nuw (i8, ptr @pmix_mca_base_var_groups, i64 128), align 8
  %.not.i = icmp sgt i32 %5, %0
  br i1 %.not.i, label %pmix_pointer_array_get_item.exit.i, label %pmix_pointer_array_get_item.exit.thread.i, !prof !40

pmix_pointer_array_get_item.exit.i:               ; preds = %4
  %6 = load ptr, ptr getelementptr inbounds nuw (i8, ptr @pmix_mca_base_var_groups, i64 152), align 8, !tbaa !41
  %7 = zext nneg i32 %0 to i64
  %8 = getelementptr inbounds nuw ptr, ptr %6, i64 %7
  %9 = load ptr, ptr %8, align 8, !tbaa !18
  store ptr %9, ptr %1, align 8, !tbaa !44
  %10 = icmp eq ptr %9, null
  br i1 %10, label %pmix_pointer_array_get_item.exit.thread.i, label %11

11:                                               ; preds = %pmix_pointer_array_get_item.exit.i
  %12 = getelementptr inbounds nuw i8, ptr %9, i64 148
  %13 = load i8, ptr %12, align 4, !tbaa !46, !range !47, !noundef !48
  %14 = trunc nuw i8 %13 to i1
  br i1 %14, label %pmix_mca_base_var_group_get_internal.exit, label %pmix_pointer_array_get_item.exit.thread.i

pmix_pointer_array_get_item.exit.thread.i:        ; preds = %11, %pmix_pointer_array_get_item.exit.i, %4
  store ptr null, ptr %1, align 8, !tbaa !44
  br label %pmix_mca_base_var_group_get_internal.exit

pmix_mca_base_var_group_get_internal.exit:        ; preds = %2, %11, %pmix_pointer_array_get_item.exit.thread.i
  %.0.i = phi i32 [ -46, %pmix_pointer_array_get_item.exit.thread.i ], [ -46, %2 ], [ 0, %11 ]
  ret i32 %.0.i
}